; Function Attrs: cold mustprogress nofree nounwind uwtable
define dso_local void @_Z4helpv() local_unnamed_addr #6 {
  %1 = load ptr, ptr @stderr, align 8, !tbaa !29
  %2 = tail call i64 @fwrite(ptr nonnull @.str.61, i64 36, i64 1, ptr %1) #42
  %3 = load ptr, ptr @stderr, align 8, !tbaa !29
  %4 = tail call i64 @fwrite(ptr nonnull @.str.62, i64 21, i64 1, ptr %3) #42
  %5 = load ptr, ptr getelementptr inbounds nuw (i8, ptr @_ZL12commandUsageB5cxx11, i64 24), align 8, !tbaa !22
  %.not5 = icmp eq ptr %5, getelementptr inbounds nuw (i8, ptr @_ZL12commandUsageB5cxx11, i64 8)
  br i1 %.not5, label %._crit_edge, label %.lr.ph

._crit_edge:                                      ; preds = %.lr.ph, %0
  %6 = load ptr, ptr @stderr, align 8, !tbaa !29
  %fputc = tail call i32 @fputc(i32 10, ptr %6)
  %7 = load ptr, ptr @stderr, align 8, !tbaa !29
  %8 = tail call i64 @fwrite(ptr nonnull @.str.65, i64 72, i64 1, ptr %7) #42
  ret void

.lr.ph:                                           ; preds = %0, %.lr.ph
  %.sroa.02.06 = phi ptr [ %15, %.lr.ph ], [ %5, %0 ]
  %9 = getelementptr inbounds nuw i8, ptr %.sroa.02.06, i64 32
  %10 = load ptr, ptr @stderr, align 8, !tbaa !29
  %11 = load ptr, ptr %9, align 8, !tbaa !15
  %12 = getelementptr inbounds nuw i8, ptr %.sroa.02.06, i64 96
  %13 = load ptr, ptr %12, align 8, !tbaa !15
  %14 = tail call i32 (ptr, ptr, ...) @fprintf(ptr noundef %10, ptr noundef nonnull @.str.63, ptr noundef %11, ptr noundef %13) #43
  %15 = tail call noundef ptr @_ZSt18_Rb_tree_incrementPSt18_Rb_tree_node_base(ptr noundef %.sroa.02.06) #44
  %.not = icmp eq ptr %15, getelementptr inbounds nuw (i8, ptr @_ZL12commandUsageB5cxx11, i64 8)
  br i1 %.not, label %._crit_edge, label %.lr.ph
}